target datalayout = "e-m:e-p270:32:32-p271:32:32-p272:64:64-i64:64-i128:128-f80:128-n8:16:32:64-S128"
target triple = "x86_64-pc-linux-gnu"

%struct.AVRational = type { i32, i32 }
%struct.AVFormatContext = type { ptr, ptr, ptr, ptr, ptr, i32, i32, ptr, i32, ptr, i32, ptr, ptr, i64, i64, i64, i32, i32, i32, i64, i64, ptr, i32, i32, ptr, i32, i32, i32, i32, ptr, i64, i32, i32, %struct.AVIOInterruptCB, i32, i32, i32, i32, i64, i32, i32, i32, i32, i32, i32, i32, i32, i32, i32, i32, i32, i64, i32, i32, i32, i32, i32, ptr, ptr, ptr, ptr, i32, ptr, ptr, ptr, ptr, i32, ptr, ptr, i64, ptr, ptr, ptr, i64 }
%struct.AVIOInterruptCB = type { ptr, ptr }
%struct.AVIContext = type { ptr, ptr, i64, i64, i64, i64, i32, i32, i32, i32, i32 }
%struct.AVStream = type { ptr, i32, i32, ptr, ptr, %struct.AVRational, i64, i64, i64, i32, i32, %struct.AVRational, ptr, %struct.AVRational, %struct.AVPacket, i32, %struct.AVRational, i32 }
%struct.AVPacket = type { ptr, i64, i64, ptr, i32, i32, i32, ptr, i32, i64, i64, ptr, ptr, %struct.AVRational }
%struct.AVCodecParameters = type { i32, i32, i32, ptr, i32, ptr, i32, i32, i64, i32, i32, i32, i32, i32, i32, %struct.AVRational, %struct.AVRational, i32, i32, i32, i32, i32, i32, i32, %struct.AVChannelLayout, i32, i32, i32, i32, i32, i32 }
%struct.AVChannelLayout = type { i32, i32, %union.anon.0, ptr }
%union.anon.0 = type { i64 }
%struct.AVIStream = type { i64, i64, i32, i32, i32, i32, i64, %struct.AVIIndex, i64, [256 x i32], [256 x i32], i64 }
%struct.AVIIndex = type { i64, i64, i32, i32, i32, ptr }

@.str.40 = private unnamed_addr constant [30 x i8] c"Assertion %s failed at %s:%d\0A\00", align 1
@.str.42 = private unnamed_addr constant [21 x i8] c"libavformat/avienc.c\00", align 1
@.str.50 = private unnamed_addr constant [23 x i8] c"avist->frames_hdr_strm\00", align 1
@.str.51 = private unnamed_addr constant [20 x i8] c"avi->frames_hdr_all\00", align 1

; Function Attrs: alwaysinline nounwind uwtable
define internal i64 @avio_tell(ptr noundef %0) #4 {
  %2 = alloca ptr, align 8
  store ptr %0, ptr %2, align 8, !tbaa !29
  %3 = load ptr, ptr %2, align 8, !tbaa !29
  %4 = call i64 @avio_seek(ptr noundef %3, i64 noundef 0, i32 noundef 1)
  ret i64 %4
}

; Function Attrs: nounwind uwtable
define internal i32 @avi_write_counters(ptr noundef %0, i32 noundef %1) #0 {
  %3 = alloca ptr, align 8
  %4 = alloca i32, align 4
  %5 = alloca ptr, align 8
  %6 = alloca ptr, align 8
  %7 = alloca i32, align 4
  %8 = alloca i32, align 4
  %9 = alloca i32, align 4
  %10 = alloca i32, align 4
  %11 = alloca i32, align 4
  %12 = alloca i64, align 8
  %13 = alloca ptr, align 8
  %14 = alloca ptr, align 8
  store ptr %0, ptr %3, align 8, !tbaa !4
  store i32 %1, ptr %4, align 4, !tbaa !43
  call void @llvm.lifetime.start.p0(i64 8, ptr %5) #12
  %15 = load ptr, ptr %3, align 8, !tbaa !4
  %16 = getelementptr inbounds nuw %struct.AVFormatContext, ptr %15, i32 0, i32 4
  %17 = load ptr, ptr %16, align 8, !tbaa !28
  store ptr %17, ptr %5, align 8, !tbaa !29
  call void @llvm.lifetime.start.p0(i64 8, ptr %6) #12
  %18 = load ptr, ptr %3, align 8, !tbaa !4
  %19 = getelementptr inbounds nuw %struct.AVFormatContext, ptr %18, i32 0, i32 3
  %20 = load ptr, ptr %19, align 8, !tbaa !9
  store ptr %20, ptr %6, align 8, !tbaa !26
  call void @llvm.lifetime.start.p0(i64 4, ptr %7) #12
  call void @llvm.lifetime.start.p0(i64 4, ptr %8) #12
  call void @llvm.lifetime.start.p0(i64 4, ptr %9) #12
  call void @llvm.lifetime.start.p0(i64 4, ptr %10) #12
  call void @llvm.lifetime.start.p0(i64 4, ptr %11) #12
  store i32 0, ptr %11, align 4, !tbaa !43
  call void @llvm.lifetime.start.p0(i64 8, ptr %12) #12
  call void @llvm.lifetime.start.p0(i64 8, ptr %13) #12
  %21 = load ptr, ptr %5, align 8, !tbaa !29
  %22 = call i64 @avio_tell(ptr noundef %21)
  store i64 %22, ptr %12, align 8, !tbaa !30
  store i32 0, ptr %7, align 4, !tbaa !43
  br label %23

23:                                               ; preds = %105, %2
  %24 = load i32, ptr %7, align 4, !tbaa !43
  %25 = load ptr, ptr %3, align 8, !tbaa !4
  %26 = getelementptr inbounds nuw %struct.AVFormatContext, ptr %25, i32 0, i32 6
  %27 = load i32, ptr %26, align 4, !tbaa !35
  %28 = icmp ult i32 %24, %27
  br i1 %28, label %29, label %108

29:                                               ; preds = %23
  call void @llvm.lifetime.start.p0(i64 8, ptr %14) #12
  %30 = load ptr, ptr %3, align 8, !tbaa !4
  %31 = getelementptr inbounds nuw %struct.AVFormatContext, ptr %30, i32 0, i32 7
  %32 = load ptr, ptr %31, align 8, !tbaa !44
  %33 = load i32, ptr %7, align 4, !tbaa !43
  %34 = sext i32 %33 to i64
  %35 = getelementptr inbounds ptr, ptr %32, i64 %34
  %36 = load ptr, ptr %35, align 8, !tbaa !31
  %37 = getelementptr inbounds nuw %struct.AVStream, ptr %36, i32 0, i32 4
  %38 = load ptr, ptr %37, align 8, !tbaa !45
  store ptr %38, ptr %14, align 8, !tbaa !77
  br label %39

39:                                               ; preds = %29
  %40 = load ptr, ptr %14, align 8, !tbaa !77
  %41 = getelementptr inbounds nuw %struct.AVIStream, ptr %40, i32 0, i32 0
  %42 = load i64, ptr %41, align 8, !tbaa !85
  %43 = icmp ne i64 %42, 0
  br i1 %43, label %45, label %44

44:                                               ; preds = %39
  call void (ptr, i32, ptr, ...) @av_log(ptr noundef null, i32 noundef 0, ptr noundef @.str.40, ptr noundef @.str.50, ptr noundef @.str.42, i32 noundef 214)
  call void @abort() #14
  unreachable

45:                                               ; preds = %39
  br label %46

46:                                               ; preds = %45
  br label %47

47:                                               ; preds = %46
  %48 = load ptr, ptr %3, align 8, !tbaa !4
  %49 = getelementptr inbounds nuw %struct.AVFormatContext, ptr %48, i32 0, i32 7
  %50 = load ptr, ptr %49, align 8, !tbaa !44
  %51 = load i32, ptr %7, align 4, !tbaa !43
  %52 = sext i32 %51 to i64
  %53 = getelementptr inbounds ptr, ptr %50, i64 %52
  %54 = load ptr, ptr %53, align 8, !tbaa !31
  %55 = getelementptr inbounds nuw %struct.AVStream, ptr %54, i32 0, i32 3
  %56 = load ptr, ptr %55, align 8, !tbaa !56
  store ptr %56, ptr %13, align 8, !tbaa !55
  %57 = load ptr, ptr %5, align 8, !tbaa !29
  %58 = load ptr, ptr %14, align 8, !tbaa !77
  %59 = getelementptr inbounds nuw %struct.AVIStream, ptr %58, i32 0, i32 0
  %60 = load i64, ptr %59, align 8, !tbaa !85
  %61 = call i64 @avio_seek(ptr noundef %57, i64 noundef %60, i32 noundef 0)
  %62 = load ptr, ptr %3, align 8, !tbaa !4
  %63 = getelementptr inbounds nuw %struct.AVFormatContext, ptr %62, i32 0, i32 7
  %64 = load ptr, ptr %63, align 8, !tbaa !44
  %65 = load i32, ptr %7, align 4, !tbaa !43
  %66 = sext i32 %65 to i64
  %67 = getelementptr inbounds ptr, ptr %64, i64 %66
  %68 = load ptr, ptr %67, align 8, !tbaa !31
  call void @ff_parse_specific_params(ptr noundef %68, ptr noundef %8, ptr noundef %9, ptr noundef %10)
  %69 = load i32, ptr %9, align 4, !tbaa !43
  %70 = icmp eq i32 %69, 0
  br i1 %70, label %71, label %76

71:                                               ; preds = %47
  %72 = load ptr, ptr %5, align 8, !tbaa !29
  %73 = load ptr, ptr %14, align 8, !tbaa !77
  %74 = getelementptr inbounds nuw %struct.AVIStream, ptr %73, i32 0, i32 2
  %75 = load i32, ptr %74, align 8, !tbaa !113
  call void @avio_wl32(ptr noundef %72, i32 noundef %75)
  br label %85

76:                                               ; preds = %47
  %77 = load ptr, ptr %5, align 8, !tbaa !29
  %78 = load ptr, ptr %14, align 8, !tbaa !77
  %79 = getelementptr inbounds nuw %struct.AVIStream, ptr %78, i32 0, i32 1
  %80 = load i64, ptr %79, align 8, !tbaa !122
  %81 = load i32, ptr %9, align 4, !tbaa !43
  %82 = sext i32 %81 to i64
  %83 = sdiv i64 %80, %82
  %84 = trunc i64 %83 to i32
  call void @avio_wl32(ptr noundef %77, i32 noundef %84)
  br label %85

85:                                               ; preds = %76, %71
  %86 = load ptr, ptr %13, align 8, !tbaa !55
  %87 = getelementptr inbounds nuw %struct.AVCodecParameters, ptr %86, i32 0, i32 0
  %88 = load i32, ptr %87, align 8, !tbaa !63
  %89 = icmp eq i32 %88, 0
  br i1 %89, label %90, label %104

90:                                               ; preds = %85
  %91 = load i32, ptr %11, align 4, !tbaa !43
  %92 = load ptr, ptr %14, align 8, !tbaa !77
  %93 = getelementptr inbounds nuw %struct.AVIStream, ptr %92, i32 0, i32 2
  %94 = load i32, ptr %93, align 8, !tbaa !113
  %95 = icmp sgt i32 %91, %94
  br i1 %95, label %96, label %98

96:                                               ; preds = %90
  %97 = load i32, ptr %11, align 4, !tbaa !43
  br label %102

98:                                               ; preds = %90
  %99 = load ptr, ptr %14, align 8, !tbaa !77
  %100 = getelementptr inbounds nuw %struct.AVIStream, ptr %99, i32 0, i32 2
  %101 = load i32, ptr %100, align 8, !tbaa !113
  br label %102

102:                                              ; preds = %98, %96
  %103 = phi i32 [ %97, %96 ], [ %101, %98 ]
  store i32 %103, ptr %11, align 4, !tbaa !43
  br label %104

104:                                              ; preds = %102, %85
  call void @llvm.lifetime.end.p0(i64 8, ptr %14) #12
  br label %105

105:                                              ; preds = %104
  %106 = load i32, ptr %7, align 4, !tbaa !43
  %107 = add nsw i32 %106, 1
  store i32 %107, ptr %7, align 4, !tbaa !43
  br label %23, !llvm.loop !152

108:                                              ; preds = %23
  %109 = load i32, ptr %4, align 4, !tbaa !43
  %110 = icmp eq i32 %109, 1
  br i1 %110, label %111, label %128

111:                                              ; preds = %108
  br label %112

112:                                              ; preds = %111
  %113 = load ptr, ptr %6, align 8, !tbaa !26
  %114 = getelementptr inbounds nuw %struct.AVIContext, ptr %113, i32 0, i32 5
  %115 = load i64, ptr %114, align 8, !tbaa !74
  %116 = icmp ne i64 %115, 0
  br i1 %116, label %118, label %117

117:                                              ; preds = %112
  call void (ptr, i32, ptr, ...) @av_log(ptr noundef null, i32 noundef 0, ptr noundef @.str.40, ptr noundef @.str.51, ptr noundef @.str.42, i32 noundef 226)
  call void @abort() #14
  unreachable

118:                                              ; preds = %112
  br label %119

119:                                              ; preds = %118
  br label %120

120:                                              ; preds = %119
  %121 = load ptr, ptr %5, align 8, !tbaa !29
  %122 = load ptr, ptr %6, align 8, !tbaa !26
  %123 = getelementptr inbounds nuw %struct.AVIContext, ptr %122, i32 0, i32 5
  %124 = load i64, ptr %123, align 8, !tbaa !74
  %125 = call i64 @avio_seek(ptr noundef %121, i64 noundef %124, i32 noundef 0)
  %126 = load ptr, ptr %5, align 8, !tbaa !29
  %127 = load i32, ptr %11, align 4, !tbaa !43
  call void @avio_wl32(ptr noundef %126, i32 noundef %127)
  br label %128

128:                                              ; preds = %120, %108
  %129 = load ptr, ptr %5, align 8, !tbaa !29
  %130 = load i64, ptr %12, align 8, !tbaa !30
  %131 = call i64 @avio_seek(ptr noundef %129, i64 noundef %130, i32 noundef 0)
  call void @llvm.lifetime.end.p0(i64 8, ptr %13) #12
  call void @llvm.lifetime.end.p0(i64 8, ptr %12) #12
  call void @llvm.lifetime.end.p0(i64 4, ptr %11) #12
  call void @llvm.lifetime.end.p0(i64 4, ptr %10) #12
  call void @llvm.lifetime.end.p0(i64 4, ptr %9) #12
  call void @llvm.lifetime.end.p0(i64 4, ptr %8) #12
  call void @llvm.lifetime.end.p0(i64 4, ptr %7) #12
  call void @llvm.lifetime.end.p0(i64 8, ptr %6) #12
  call void @llvm.lifetime.end.p0(i64 8, ptr %5) #12
  ret i32 0
}