; Function Attrs: nounwind uwtable
define internal fastcc void @avi_write_counters(ptr noundef readonly captures(none) %0, i32 noundef %1) unnamed_addr #0 {
  %3 = alloca i32, align 4
  %4 = alloca i32, align 4
  %5 = alloca i32, align 4
  %6 = getelementptr inbounds nuw i8, ptr %0, i64 32
  %7 = load ptr, ptr %6, align 8, !tbaa !24
  %8 = getelementptr inbounds nuw i8, ptr %0, i64 24
  %9 = load ptr, ptr %8, align 8, !tbaa !4
  call void @llvm.lifetime.start.p0(i64 4, ptr nonnull %3) #10
  call void @llvm.lifetime.start.p0(i64 4, ptr nonnull %4) #10
  call void @llvm.lifetime.start.p0(i64 4, ptr nonnull %5) #10
  %10 = tail call i64 @avio_seek(ptr noundef %7, i64 noundef 0, i32 noundef 1) #10
  %11 = getelementptr inbounds nuw i8, ptr %0, i64 44
  %12 = load i32, ptr %11, align 4, !tbaa !25
  %.not40 = icmp eq i32 %12, 0
  br i1 %.not40, label %._crit_edge, label %.lr.ph

.lr.ph:                                           ; preds = %2
  %13 = getelementptr inbounds nuw i8, ptr %0, i64 48
  br label %14

14:                                               ; preds = %.lr.ph, %46
  %indvars.iv = phi i64 [ 0, %.lr.ph ], [ %indvars.iv.next, %46 ]
  %.03138 = phi i32 [ 0, %.lr.ph ], [ %.1, %46 ]
  %15 = load ptr, ptr %13, align 8, !tbaa !36
  %16 = getelementptr inbounds nuw ptr, ptr %15, i64 %indvars.iv
  %17 = load ptr, ptr %16, align 8, !tbaa !37
  %18 = getelementptr inbounds nuw i8, ptr %17, i64 24
  %19 = load ptr, ptr %18, align 8, !tbaa !39
  %20 = load i64, ptr %19, align 8, !tbaa !75
  %.not36 = icmp eq i64 %20, 0
  br i1 %.not36, label %21, label %22

21:                                               ; preds = %14
  call void (ptr, i32, ptr, ...) @av_log(ptr noundef null, i32 noundef 0, ptr noundef nonnull @.str.40, ptr noundef nonnull @.str.50, ptr noundef nonnull @.str.42, i32 noundef 214) #10
  call void @abort() #12
  unreachable

22:                                               ; preds = %14
  %23 = getelementptr inbounds nuw i8, ptr %17, i64 16
  %24 = load ptr, ptr %23, align 8, !tbaa !54
  %25 = call i64 @avio_seek(ptr noundef %7, i64 noundef %20, i32 noundef 0) #10
  %26 = load ptr, ptr %13, align 8, !tbaa !36
  %27 = getelementptr inbounds nuw ptr, ptr %26, i64 %indvars.iv
  %28 = load ptr, ptr %27, align 8, !tbaa !37
  call void @ff_parse_specific_params(ptr noundef %28, ptr noundef nonnull %3, ptr noundef nonnull %4, ptr noundef nonnull %5) #10
  %29 = load i32, ptr %4, align 4, !tbaa !74
  %30 = icmp eq i32 %29, 0
  br i1 %30, label %31, label %34

31:                                               ; preds = %22
  %32 = getelementptr inbounds nuw i8, ptr %19, i64 16
  %33 = load i32, ptr %32, align 8, !tbaa !97
  br label %40

34:                                               ; preds = %22
  %35 = getelementptr inbounds nuw i8, ptr %19, i64 8
  %36 = load i64, ptr %35, align 8, !tbaa !46
  %37 = sext i32 %29 to i64
  %38 = sdiv i64 %36, %37
  %39 = trunc i64 %38 to i32
  br label %40

40:                                               ; preds = %34, %31
  %.sink = phi i32 [ %39, %34 ], [ %33, %31 ]
  call void @avio_wl32(ptr noundef %7, i32 noundef %.sink) #10
  %41 = load i32, ptr %24, align 8, !tbaa !59
  %42 = icmp eq i32 %41, 0
  br i1 %42, label %43, label %46

43:                                               ; preds = %40
  %44 = getelementptr inbounds nuw i8, ptr %19, i64 16
  %45 = load i32, ptr %44, align 8, !tbaa !97
  %.031. = call i32 @llvm.smax.i32(i32 %.03138, i32 %45)
  br label %46

46:                                               ; preds = %43, %40
  %.1 = phi i32 [ %.031., %43 ], [ %.03138, %40 ]
  %indvars.iv.next = add nuw nsw i64 %indvars.iv, 1
  %47 = load i32, ptr %11, align 4, !tbaa !25
  %48 = zext i32 %47 to i64
  %49 = icmp samesign ult i64 %indvars.iv.next, %48
  br i1 %49, label %14, label %._crit_edge, !llvm.loop !133

._crit_edge:                                      ; preds = %46, %2
  %.031.lcssa = phi i32 [ 0, %2 ], [ %.1, %46 ]
  %50 = icmp eq i32 %1, 1
  br i1 %50, label %51, label %57

51:                                               ; preds = %._crit_edge
  %52 = getelementptr inbounds nuw i8, ptr %9, i64 40
  %53 = load i64, ptr %52, align 8, !tbaa !68
  %.not = icmp eq i64 %53, 0
  br i1 %.not, label %54, label %55

54:                                               ; preds = %51
  call void (ptr, i32, ptr, ...) @av_log(ptr noundef null, i32 noundef 0, ptr noundef nonnull @.str.40, ptr noundef nonnull @.str.51, ptr noundef nonnull @.str.42, i32 noundef 226) #10
  call void @abort() #12
  unreachable

55:                                               ; preds = %51
  %56 = call i64 @avio_seek(ptr noundef %7, i64 noundef %53, i32 noundef 0) #10
  call void @avio_wl32(ptr noundef %7, i32 noundef %.031.lcssa) #10
  br label %57

57:                                               ; preds = %55, %._crit_edge
  %58 = call i64 @avio_seek(ptr noundef %7, i64 noundef %10, i32 noundef 0) #10
  call void @llvm.lifetime.end.p0(i64 4, ptr nonnull %5) #10
  call void @llvm.lifetime.end.p0(i64 4, ptr nonnull %4) #10
  call void @llvm.lifetime.end.p0(i64 4, ptr nonnull %3) #10
  ret void
}